; ModuleID = '892.c'
source_filename = "892.c"
target datalayout = "e-m:e-p270:32:32-p271:32:32-p272:64:64-i64:64-f80:128-n8:16:32:64-S128"
target triple = "x86_64-pc-linux-gnu"

@.str = private unnamed_addr constant [6 x i8] c"%d %d\00", align 1
@.str.1 = private unnamed_addr constant [4 x i8] c"%d \00", align 1
@.str.2 = private unnamed_addr constant [4 x i8] c"%d\0A\00", align 1

; Function Attrs: noinline nounwind uwtable
define dso_local i32 @main() #0 {
  %1 = alloca i32, align 4
  %2 = alloca [100 x [100 x i32]], align 16
  %3 = alloca [100 x [100 x i32]], align 16
  %4 = alloca i32, align 4
  %5 = alloca i32, align 4
  %6 = alloca i32, align 4
  %7 = alloca i32, align 4
  %8 = alloca i32, align 4
  %9 = alloca i32, align 4
  %10 = alloca i32, align 4
  store i32 0, i32* %1, align 4
  %11 = bitcast [100 x [100 x i32]]* %2 to i8*
  call void @llvm.memset.p0i8.i64(i8* align 16 %11, i8 0, i64 40000, i1 false)
  %12 = bitcast [100 x [100 x i32]]* %3 to i8*
  call void @llvm.memset.p0i8.i64(i8* align 16 %12, i8 0, i64 40000, i1 false)
  %13 = call i32 (i8*, ...) @__isoc99_scanf(i8* getelementptr inbounds ([6 x i8], [6 x i8]* @.str, i64 0, i64 0), i32* %7, i32* %8)
  %14 = load i32, i32* %7, align 4
  %15 = getelementptr inbounds [100 x [100 x i32]], [100 x [100 x i32]]* %2, i64 0, i64 50
  %16 = getelementptr inbounds [100 x i32], [100 x i32]* %15, i64 0, i64 50
  store i32 %14, i32* %16, align 8
  store i32 0, i32* %6, align 4
  br label %17

17:                                               ; preds = %115, %0
  %18 = load i32, i32* %6, align 4
  %19 = load i32, i32* %8, align 4
  %20 = icmp slt i32 %18, %19
  br i1 %20, label %21, label %118

21:                                               ; preds = %17
  %22 = getelementptr inbounds [100 x [100 x i32]], [100 x [100 x i32]]* %3, i64 0, i64 0
  %23 = bitcast [100 x i32]* %22 to i8*
  call void @llvm.memset.p0i8.i64(i8* align 16 %23, i8 0, i64 40000, i1 false)
  store i32 0, i32* %4, align 4
  br label %24

24:                                               ; preds = %107, %21
  %25 = load i32, i32* %4, align 4
  %26 = icmp slt i32 %25, 100
  br i1 %26, label %27, label %110

27:                                               ; preds = %24
  store i32 0, i32* %5, align 4
  br label %28

28:                                               ; preds = %103, %27
  %29 = load i32, i32* %5, align 4
  %30 = icmp slt i32 %29, 100
  br i1 %30, label %31, label %106

31:                                               ; preds = %28
  %32 = load i32, i32* %4, align 4
  %33 = sext i32 %32 to i64
  %34 = getelementptr inbounds [100 x [100 x i32]], [100 x [100 x i32]]* %2, i64 0, i64 %33
  %35 = load i32, i32* %5, align 4
  %36 = sext i32 %35 to i64
  %37 = getelementptr inbounds [100 x i32], [100 x i32]* %34, i64 0, i64 %36
  %38 = load i32, i32* %37, align 4
  %39 = load i32, i32* %4, align 4
  %40 = sext i32 %39 to i64
  %41 = getelementptr inbounds [100 x [100 x i32]], [100 x [100 x i32]]* %3, i64 0, i64 %40
  %42 = load i32, i32* %5, align 4
  %43 = sext i32 %42 to i64
  %44 = getelementptr inbounds [100 x i32], [100 x i32]* %41, i64 0, i64 %43
  %45 = load i32, i32* %44, align 4
  %46 = add nsw i32 %45, %38
  store i32 %46, i32* %44, align 4
  store i32 -1, i32* %9, align 4
  br label %47

47:                                               ; preds = %99, %31
  %48 = load i32, i32* %9, align 4
  %49 = icmp sle i32 %48, 1
  br i1 %49, label %50, label %102

50:                                               ; preds = %47
  store i32 -1, i32* %10, align 4
  br label %51

51:                                               ; preds = %95, %50
  %52 = load i32, i32* %10, align 4
  %53 = icmp sle i32 %52, 1
  br i1 %53, label %54, label %98

54:                                               ; preds = %51
  %55 = load i32, i32* %4, align 4
  %56 = load i32, i32* %9, align 4
  %57 = add nsw i32 %55, %56
  %58 = icmp sge i32 %57, 0
  br i1 %58, label %59, label %94

59:                                               ; preds = %54
  %60 = load i32, i32* %4, align 4
  %61 = load i32, i32* %9, align 4
  %62 = add nsw i32 %60, %61
  %63 = icmp slt i32 %62, 100
  br i1 %63, label %64, label %94

64:                                               ; preds = %59
  %65 = load i32, i32* %5, align 4
  %66 = load i32, i32* %10, align 4
  %67 = add nsw i32 %65, %66
  %68 = icmp sge i32 %67, 0
  br i1 %68, label %69, label %94

69:                                               ; preds = %64
  %70 = load i32, i32* %5, align 4
  %71 = load i32, i32* %10, align 4
  %72 = add nsw i32 %70, %71
  %73 = icmp slt i32 %72, 100
  br i1 %73, label %74, label %94

74:                                               ; preds = %69
  %75 = load i32, i32* %4, align 4
  %76 = sext i32 %75 to i64
  %77 = getelementptr inbounds [100 x [100 x i32]], [100 x [100 x i32]]* %2, i64 0, i64 %76
  %78 = load i32, i32* %5, align 4
  %79 = sext i32 %78 to i64
  %80 = getelementptr inbounds [100 x i32], [100 x i32]* %77, i64 0, i64 %79
  %81 = load i32, i32* %80, align 4
  %82 = load i32, i32* %4, align 4
  %83 = load i32, i32* %9, align 4
  %84 = add nsw i32 %82, %83
  %85 = sext i32 %84 to i64
  %86 = getelementptr inbounds [100 x [100 x i32]], [100 x [100 x i32]]* %3, i64 0, i64 %85
  %87 = load i32, i32* %5, align 4
  %88 = load i32, i32* %10, align 4
  %89 = add nsw i32 %87, %88
  %90 = sext i32 %89 to i64
  %91 = getelementptr inbounds [100 x i32], [100 x i32]* %86, i64 0, i64 %90
  %92 = load i32, i32* %91, align 4
  %93 = add nsw i32 %92, %81
  store i32 %93, i32* %91, align 4
  br label %94

94:                                               ; preds = %74, %69, %64, %59, %54
  br label %95

95:                                               ; preds = %94
  %96 = load i32, i32* %10, align 4
  %97 = add nsw i32 %96, 1
  store i32 %97, i32* %10, align 4
  br label %51

98:                                               ; preds = %51
  br label %99

99:                                               ; preds = %98
  %100 = load i32, i32* %9, align 4
  %101 = add nsw i32 %100, 1
  store i32 %101, i32* %9, align 4
  br label %47

102:                                              ; preds = %47
  br label %103

103:                                              ; preds = %102
  %104 = load i32, i32* %5, align 4
  %105 = add nsw i32 %104, 1
  store i32 %105, i32* %5, align 4
  br label %28

106:                                              ; preds = %28
  br label %107

107:                                              ; preds = %106
  %108 = load i32, i32* %4, align 4
  %109 = add nsw i32 %108, 1
  store i32 %109, i32* %4, align 4
  br label %24

110:                                              ; preds = %24
  %111 = getelementptr inbounds [100 x [100 x i32]], [100 x [100 x i32]]* %2, i64 0, i64 0
  %112 = bitcast [100 x i32]* %111 to i8*
  %113 = getelementptr inbounds [100 x [100 x i32]], [100 x [100 x i32]]* %3, i64 0, i64 0
  %114 = bitcast [100 x i32]* %113 to i8*
  call void @llvm.memcpy.p0i8.p0i8.i64(i8* align 16 %112, i8* align 16 %114, i64 40000, i1 false)
  br label %115

115:                                              ; preds = %110
  %116 = load i32, i32* %6, align 4
  %117 = add nsw i32 %116, 1
  store i32 %117, i32* %6, align 4
  br label %17

118:                                              ; preds = %17
  store i32 0, i32* %4, align 4
  br label %119

119:                                              ; preds = %145, %118
  %120 = load i32, i32* %4, align 4
  %121 = icmp slt i32 %120, 100
  br i1 %121, label %122, label %148

122:                                              ; preds = %119
  store i32 0, i32* %5, align 4
  br label %123

123:                                              ; preds = %135, %122
  %124 = load i32, i32* %5, align 4
  %125 = icmp slt i32 %124, 99
  br i1 %125, label %126, label %138

126:                                              ; preds = %123
  %127 = load i32, i32* %4, align 4
  %128 = sext i32 %127 to i64
  %129 = getelementptr inbounds [100 x [100 x i32]], [100 x [100 x i32]]* %2, i64 0, i64 %128
  %130 = load i32, i32* %5, align 4
  %131 = sext i32 %130 to i64
  %132 = getelementptr inbounds [100 x i32], [100 x i32]* %129, i64 0, i64 %131
  %133 = load i32, i32* %132, align 4
  %134 = call i32 (i8*, ...) @printf(i8* getelementptr inbounds ([4 x i8], [4 x i8]* @.str.1, i64 0, i64 0), i32 %133)
  br label %135

135:                                              ; preds = %126
  %136 = load i32, i32* %5, align 4
  %137 = add nsw i32 %136, 1
  store i32 %137, i32* %5, align 4
  br label %123

138:                                              ; preds = %123
  %139 = load i32, i32* %4, align 4
  %140 = sext i32 %139 to i64
  %141 = getelementptr inbounds [100 x [100 x i32]], [100 x [100 x i32]]* %2, i64 0, i64 %140
  %142 = getelementptr inbounds [100 x i32], [100 x i32]* %141, i64 0, i64 99
  %143 = load i32, i32* %142, align 4
  %144 = call i32 (i8*, ...) @printf(i8* getelementptr inbounds ([4 x i8], [4 x i8]* @.str.2, i64 0, i64 0), i32 %143)
  br label %145

145:                                              ; preds = %138
  %146 = load i32, i32* %4, align 4
  %147 = add nsw i32 %146, 1
  store i32 %147, i32* %4, align 4
  br label %119

148:                                              ; preds = %119
  ret i32 0
}

; Function Attrs: argmemonly nounwind willreturn
declare void @llvm.memset.p0i8.i64(i8* nocapture writeonly, i8, i64, i1 immarg) #1

declare dso_local i32 @__isoc99_scanf(i8*, ...) #2

; Function Attrs: argmemonly nounwind willreturn
declare void @llvm.memcpy.p0i8.p0i8.i64(i8* noalias nocapture writeonly, i8* noalias nocapture readonly, i64, i1 immarg) #1

declare dso_local i32 @printf(i8*, ...) #2


!llvm.module.flags = !{!0}
!llvm.ident = !{!1}

!0 = !{i32 1, !"wchar_size", i32 4}
!1 = !{!"clang version 10.0.0-4ubuntu1 "}
